; Function Attrs: mustprogress nounwind uwtable
define void @_ZN5Ipopt10SymTMatrixD2Ev(ptr noundef nonnull align 8 dereferenceable(97) initializes((0, 8), (16, 24)) %0) unnamed_addr #1 align 2 personality ptr @__gxx_personality_v0 {
  store ptr getelementptr inbounds nuw inrange(-16, 96) (i8, ptr @_ZTVN5Ipopt10SymTMatrixE, i64 16), ptr %0, align 8, !tbaa !8
  %2 = getelementptr inbounds nuw i8, ptr %0, i64 16
  store ptr getelementptr inbounds nuw inrange(-16, 16) (i8, ptr @_ZTVN5Ipopt10SymTMatrixE, i64 128), ptr %2, align 8, !tbaa !8
  %3 = getelementptr inbounds nuw i8, ptr %0, i64 88
  %4 = load ptr, ptr %3, align 8, !tbaa !32
  %5 = icmp eq ptr %4, null
  br i1 %5, label %_ZNK5Ipopt15SymTMatrixSpace19FreeInternalStorageEPd.exit, label %6

6:                                                ; preds = %1
  tail call void @_ZdaPv(ptr noundef nonnull %4) #18
  br label %_ZNK5Ipopt15SymTMatrixSpace19FreeInternalStorageEPd.exit

_ZNK5Ipopt15SymTMatrixSpace19FreeInternalStorageEPd.exit: ; preds = %1, %6
  store ptr getelementptr inbounds nuw inrange(-16, 96) (i8, ptr @_ZTVN5Ipopt6MatrixE, i64 16), ptr %0, align 8, !tbaa !8
  store ptr getelementptr inbounds nuw inrange(-16, 16) (i8, ptr @_ZTVN5Ipopt6MatrixE, i64 128), ptr %2, align 8, !tbaa !8
  %7 = getelementptr inbounds nuw i8, ptr %0, i64 56
  %8 = load ptr, ptr %7, align 8, !tbaa !10
  %.not.i.i.i = icmp eq ptr %8, null
  br i1 %.not.i.i.i, label %_ZN5Ipopt6MatrixD2Ev.exit, label %9

9:                                                ; preds = %_ZNK5Ipopt15SymTMatrixSpace19FreeInternalStorageEPd.exit
  %10 = getelementptr inbounds nuw i8, ptr %8, i64 8
  %11 = load i32, ptr %10, align 8, !tbaa !3
  %12 = add nsw i32 %11, -1
  store i32 %12, ptr %10, align 8, !tbaa !3
  %13 = icmp eq i32 %12, 0
  br i1 %13, label %14, label %_ZN5Ipopt6MatrixD2Ev.exit

14:                                               ; preds = %9
  %15 = load ptr, ptr %8, align 8, !tbaa !8
  %16 = getelementptr inbounds nuw i8, ptr %15, i64 8
  %17 = load ptr, ptr %16, align 8
  tail call void %17(ptr noundef nonnull align 8 dereferenceable(20) %8) #16
  store ptr null, ptr %7, align 8, !tbaa !10
  br label %_ZN5Ipopt6MatrixD2Ev.exit

_ZN5Ipopt6MatrixD2Ev.exit:                        ; preds = %_ZNK5Ipopt15SymTMatrixSpace19FreeInternalStorageEPd.exit, %9, %14
  tail call void @_ZN5Ipopt7SubjectD2Ev(ptr noundef nonnull align 8 dereferenceable(32) %2) #16
  store ptr getelementptr inbounds nuw inrange(-16, 16) (i8, ptr @_ZTVN5Ipopt16ReferencedObjectE, i64 16), ptr %0, align 8, !tbaa !8
  ret void
}